; Function Attrs: mustprogress uwtable
define void @_ZNK6colvar11orientation11dist2_rgradERK11colvarvalueS3_(ptr dead_on_unwind noalias writable sret(%class.colvarvalue) align 8 %0, ptr nocapture nonnull readnone align 8 %1, ptr noundef nonnull align 8 dereferenceable(168) %2, ptr noundef nonnull align 8 dereferenceable(168) %3) unnamed_addr #2 align 2 {
  %5 = alloca %"class.colvarmodule::quaternion", align 8
  %6 = alloca %"class.colvarmodule::quaternion", align 8
  %7 = getelementptr inbounds i8, ptr %3, i64 40
  call void @_ZNK11colvarvaluecvN12colvarmodule10quaternionEEv(ptr dead_on_unwind nonnull writable sret(%"class.colvarmodule::quaternion") align 8 %6, ptr noundef nonnull align 8 dereferenceable(168) %2)
  call void @_ZNK12colvarmodule10quaternion10dist2_gradERKS0_(ptr dead_on_unwind nonnull writable sret(%"class.colvarmodule::quaternion") align 8 %5, ptr noundef nonnull align 8 dereferenceable(32) %7, ptr noundef nonnull align 8 dereferenceable(32) %6)
  call void @_ZN11colvarvalueC1ERKN12colvarmodule10quaternionENS_4TypeE(ptr noundef nonnull align 8 dereferenceable(168) %0, ptr noundef nonnull align 8 dereferenceable(32) %5, i32 noundef 5)
  ret void
}